target datalayout = "e-m:e-p270:32:32-p271:32:32-p272:64:64-i64:64-i128:128-f80:128-n8:16:32:64-S128"
target triple = "x86_64-pc-linux-gnu"

%"class.icu_77::UnicodeString" = type { %"class.icu_77::Replaceable", %"union.icu_77::UnicodeString::StackBufferOrFields" }
%"class.icu_77::Replaceable" = type { %"class.icu_77::UObject" }
%"class.icu_77::UObject" = type { ptr }
%"union.icu_77::UnicodeString::StackBufferOrFields" = type { %struct.anon.4, [32 x i8] }
%struct.anon.4 = type { i16, i32, i32, ptr }
%"class.icu_77::ListFormatter" = type { %"class.icu_77::UObject", ptr, ptr }
%"struct.icu_77::ListFormatInternal" = type { [8 x i8], %"class.icu_77::SimpleFormatter", %"class.icu_77::SimpleFormatter", %"class.icu_77::LocalPointer" }
%"class.icu_77::SimpleFormatter" = type { [8 x i8], %"class.icu_77::UnicodeString" }
%"class.icu_77::LocalPointer" = type { %"class.icu_77::LocalPointerBase" }
%"class.icu_77::LocalPointerBase" = type { ptr }

@_ZTVN6icu_7713ListFormatterE = unnamed_addr constant { [5 x ptr] } { [5 x ptr] [ptr null, ptr @_ZTIN6icu_7713ListFormatterE, ptr @_ZN6icu_7713ListFormatterD1Ev, ptr @_ZN6icu_7713ListFormatterD0Ev, ptr @_ZNK6icu_777UObject17getDynamicClassIDEv] }, align 8
@_ZTVN6icu_777UObjectE = available_externally unnamed_addr constant { [5 x ptr] } { [5 x ptr] [ptr null, ptr @_ZTIN6icu_777UObjectE, ptr @_ZN6icu_777UObjectD1Ev, ptr @_ZN6icu_777UObjectD0Ev, ptr @_ZNK6icu_777UObject17getDynamicClassIDEv] }, align 8

; Function Attrs: mustprogress nounwind uwtable
define internal void @_ZN6icu_7716LocalPointerBaseINS_12_GLOBAL__N_114PatternHandlerEEC2EPS2_(ptr noundef nonnull align 8 dereferenceable(8) %0, ptr noundef %1) unnamed_addr #0 align 2 {
  %3 = alloca ptr, align 8
  %4 = alloca ptr, align 8
  store ptr %0, ptr %3, align 8, !tbaa !101
  store ptr %1, ptr %4, align 8, !tbaa !113
  %5 = load ptr, ptr %3, align 8
  %6 = getelementptr inbounds nuw %"class.icu_77::LocalPointerBase", ptr %5, i32 0, i32 0
  %7 = load ptr, ptr %4, align 8, !tbaa !113
  store ptr %7, ptr %6, align 8, !tbaa !103
  ret void
}

; Function Attrs: mustprogress uwtable
define internal void @_ZN6icu_7712LocalPointerINS_12_GLOBAL__N_114PatternHandlerEEC2EPS2_(ptr noundef nonnull align 8 dereferenceable(8) %0, ptr noundef %1) unnamed_addr #1 align 2 {
  %3 = alloca ptr, align 8
  %4 = alloca ptr, align 8
  store ptr %0, ptr %3, align 8, !tbaa !111
  store ptr %1, ptr %4, align 8, !tbaa !113
  %5 = load ptr, ptr %3, align 8
  %6 = load ptr, ptr %4, align 8, !tbaa !113
  call void @_ZN6icu_7716LocalPointerBaseINS_12_GLOBAL__N_114PatternHandlerEEC2EPS2_(ptr noundef nonnull align 8 dereferenceable(8) %5, ptr noundef %6)
  ret void
}

; Function Attrs: mustprogress nounwind uwtable
define internal noundef ptr @_ZNK6icu_7716LocalPointerBaseINS_12_GLOBAL__N_114PatternHandlerEEptEv(ptr noundef nonnull align 8 dereferenceable(8) %0) #0 align 2 {
  %2 = alloca ptr, align 8
  store ptr %0, ptr %2, align 8, !tbaa !101
  %3 = load ptr, ptr %2, align 8
  %4 = getelementptr inbounds nuw %"class.icu_77::LocalPointerBase", ptr %3, i32 0, i32 0
  %5 = load ptr, ptr %4, align 8, !tbaa !103
  ret ptr %5
}

; Function Attrs: mustprogress uwtable
define linkonce_odr void @_ZN6icu_7715SimpleFormatterC2ERKS0_(ptr noundef nonnull align 8 dereferenceable(72) %0, ptr noundef nonnull align 8 dereferenceable(72) %1) unnamed_addr #1 comdat align 2 {
  %3 = alloca ptr, align 8
  %4 = alloca ptr, align 8
  store ptr %0, ptr %3, align 8, !tbaa !99
  store ptr %1, ptr %4, align 8, !tbaa !99
  %5 = load ptr, ptr %3, align 8
  %6 = getelementptr inbounds nuw %"class.icu_77::SimpleFormatter", ptr %5, i32 0, i32 1
  %7 = load ptr, ptr %4, align 8, !tbaa !99
  %8 = getelementptr inbounds nuw %"class.icu_77::SimpleFormatter", ptr %7, i32 0, i32 1
  call void @_ZN6icu_7713UnicodeStringC1ERKS0_(ptr noundef nonnull align 8 dereferenceable(64) %6, ptr noundef nonnull align 8 dereferenceable(64) %8)
  ret void
}

; Function Attrs: mustprogress uwtable
define linkonce_odr void @_ZN6icu_7718ListFormatInternalC2ERKS0_(ptr noundef nonnull align 8 dereferenceable(160) %0, ptr noundef nonnull align 8 dereferenceable(160) %1) unnamed_addr #1 comdat align 2 personality ptr @__gxx_personality_v0 {
  %3 = alloca ptr, align 8
  %4 = alloca ptr, align 8
  %5 = alloca ptr, align 8
  %6 = alloca i32, align 4
  store ptr %0, ptr %3, align 8, !tbaa !48
  store ptr %1, ptr %4, align 8, !tbaa !48
  %7 = load ptr, ptr %3, align 8
  %8 = getelementptr inbounds nuw %"struct.icu_77::ListFormatInternal", ptr %7, i32 0, i32 1
  %9 = load ptr, ptr %4, align 8, !tbaa !48
  %10 = getelementptr inbounds nuw %"struct.icu_77::ListFormatInternal", ptr %9, i32 0, i32 1
  call void @_ZN6icu_7715SimpleFormatterC2ERKS0_(ptr noundef nonnull align 8 dereferenceable(72) %8, ptr noundef nonnull align 8 dereferenceable(72) %10)
  %11 = getelementptr inbounds nuw %"struct.icu_77::ListFormatInternal", ptr %7, i32 0, i32 2
  %12 = load ptr, ptr %4, align 8, !tbaa !48
  %13 = getelementptr inbounds nuw %"struct.icu_77::ListFormatInternal", ptr %12, i32 0, i32 2
  invoke void @_ZN6icu_7715SimpleFormatterC2ERKS0_(ptr noundef nonnull align 8 dereferenceable(72) %11, ptr noundef nonnull align 8 dereferenceable(72) %13)
          to label %14 unwind label %26

14:                                               ; preds = %2
  %15 = getelementptr inbounds nuw %"struct.icu_77::ListFormatInternal", ptr %7, i32 0, i32 3
  %16 = load ptr, ptr %4, align 8, !tbaa !48
  %17 = getelementptr inbounds nuw %"struct.icu_77::ListFormatInternal", ptr %16, i32 0, i32 3
  %18 = invoke noundef ptr @_ZNK6icu_7716LocalPointerBaseINS_12_GLOBAL__N_114PatternHandlerEEptEv(ptr noundef nonnull align 8 dereferenceable(8) %17)
          to label %19 unwind label %30

19:                                               ; preds = %14
  %20 = load ptr, ptr %18, align 8, !tbaa !27
  %21 = getelementptr inbounds ptr, ptr %20, i64 3
  %22 = load ptr, ptr %21, align 8
  %23 = invoke noundef ptr %22(ptr noundef nonnull align 8 dereferenceable(152) %18)
          to label %24 unwind label %30

24:                                               ; preds = %19
  invoke void @_ZN6icu_7712LocalPointerINS_12_GLOBAL__N_114PatternHandlerEEC2EPS2_(ptr noundef nonnull align 8 dereferenceable(8) %15, ptr noundef %23)
          to label %25 unwind label %30

25:                                               ; preds = %24
  ret void

26:                                               ; preds = %2
  %27 = landingpad { ptr, i32 }
          cleanup
  %28 = extractvalue { ptr, i32 } %27, 0
  store ptr %28, ptr %5, align 8
  %29 = extractvalue { ptr, i32 } %27, 1
  store i32 %29, ptr %6, align 4
  br label %34

30:                                               ; preds = %24, %19, %14
  %31 = landingpad { ptr, i32 }
          cleanup
  %32 = extractvalue { ptr, i32 } %31, 0
  store ptr %32, ptr %5, align 8
  %33 = extractvalue { ptr, i32 } %31, 1
  store i32 %33, ptr %6, align 4
  call void @_ZN6icu_7715SimpleFormatterD1Ev(ptr noundef nonnull align 8 dereferenceable(72) %11) #12
  br label %34

34:                                               ; preds = %30, %26
  call void @_ZN6icu_7715SimpleFormatterD1Ev(ptr noundef nonnull align 8 dereferenceable(72) %8) #12
  br label %35

35:                                               ; preds = %34
  %36 = load ptr, ptr %5, align 8
  %37 = load i32, ptr %6, align 4
  %38 = insertvalue { ptr, i32 } poison, ptr %36, 0
  %39 = insertvalue { ptr, i32 } %38, i32 %37, 1
  resume { ptr, i32 } %39
}

; Function Attrs: inlinehint mustprogress nounwind uwtable
define linkonce_odr void @_ZN6icu_777UObjectC2Ev(ptr noundef nonnull align 8 dereferenceable(8) %0) unnamed_addr #2 comdat align 2 {
  %2 = alloca ptr, align 8
  store ptr %0, ptr %2, align 8, !tbaa !46
  %3 = load ptr, ptr %2, align 8
  store ptr getelementptr inbounds inrange(-16, 24) ({ [5 x ptr] }, ptr @_ZTVN6icu_777UObjectE, i32 0, i32 0, i32 2), ptr %3, align 8, !tbaa !27
  ret void
}

; Function Attrs: mustprogress uwtable
define void @_ZN6icu_7713ListFormatterC2ERKS0_(ptr noundef nonnull align 8 dereferenceable(24) %0, ptr noundef nonnull align 8 dereferenceable(24) %1) unnamed_addr #1 align 2 personality ptr @__gxx_personality_v0 {
  %3 = alloca ptr, align 8
  %4 = alloca ptr, align 8
  %5 = alloca ptr, align 8
  %6 = alloca i1, align 1
  %7 = alloca ptr, align 8
  %8 = alloca i32, align 4
  store ptr %0, ptr %3, align 8, !tbaa !39
  store ptr %1, ptr %4, align 8, !tbaa !39
  %9 = load ptr, ptr %3, align 8
  call void @_ZN6icu_777UObjectC2Ev(ptr noundef nonnull align 8 dereferenceable(8) %9) #12
  store ptr getelementptr inbounds inrange(-16, 24) ({ [5 x ptr] }, ptr @_ZTVN6icu_7713ListFormatterE, i32 0, i32 0, i32 2), ptr %9, align 8, !tbaa !27
  %10 = getelementptr inbounds nuw %"class.icu_77::ListFormatter", ptr %9, i32 0, i32 1
  %11 = load ptr, ptr %4, align 8, !tbaa !39
  %12 = getelementptr inbounds nuw %"class.icu_77::ListFormatter", ptr %11, i32 0, i32 1
  %13 = load ptr, ptr %12, align 8, !tbaa !41
  store ptr %13, ptr %10, align 8, !tbaa !41
  %14 = getelementptr inbounds nuw %"class.icu_77::ListFormatter", ptr %9, i32 0, i32 2
  %15 = load ptr, ptr %4, align 8, !tbaa !39
  %16 = getelementptr inbounds nuw %"class.icu_77::ListFormatter", ptr %15, i32 0, i32 2
  %17 = load ptr, ptr %16, align 8, !tbaa !45
  store ptr %17, ptr %14, align 8, !tbaa !45
  %18 = load ptr, ptr %4, align 8, !tbaa !39
  %19 = getelementptr inbounds nuw %"class.icu_77::ListFormatter", ptr %18, i32 0, i32 1
  %20 = load ptr, ptr %19, align 8, !tbaa !41
  %21 = icmp ne ptr %20, null
  br i1 %21, label %22, label %44

22:                                               ; preds = %2
  %23 = call noundef ptr @_ZN6icu_777UMemorynwEm(i64 noundef 160) #12
  %24 = icmp eq ptr %23, null
  store i1 false, ptr %6, align 1
  br i1 %24, label %30, label %25

25:                                               ; preds = %22
  store ptr %23, ptr %5, align 8
  store i1 true, ptr %6, align 1
  %26 = load ptr, ptr %4, align 8, !tbaa !39
  %27 = getelementptr inbounds nuw %"class.icu_77::ListFormatter", ptr %26, i32 0, i32 1
  %28 = load ptr, ptr %27, align 8, !tbaa !41
  invoke void @_ZN6icu_7718ListFormatInternalC2ERKS0_(ptr noundef nonnull align 8 dereferenceable(160) %23, ptr noundef nonnull align 8 dereferenceable(160) %28)
          to label %29 unwind label %36

29:                                               ; preds = %25
  br label %30

30:                                               ; preds = %29, %22
  %31 = phi ptr [ %23, %29 ], [ null, %22 ]
  %32 = getelementptr inbounds nuw %"class.icu_77::ListFormatter", ptr %9, i32 0, i32 1
  store ptr %31, ptr %32, align 8, !tbaa !41
  %33 = getelementptr inbounds nuw %"class.icu_77::ListFormatter", ptr %9, i32 0, i32 1
  %34 = load ptr, ptr %33, align 8, !tbaa !41
  %35 = getelementptr inbounds nuw %"class.icu_77::ListFormatter", ptr %9, i32 0, i32 2
  store ptr %34, ptr %35, align 8, !tbaa !45
  br label %44

36:                                               ; preds = %25
  %37 = landingpad { ptr, i32 }
          cleanup
  %38 = extractvalue { ptr, i32 } %37, 0
  store ptr %38, ptr %7, align 8
  %39 = extractvalue { ptr, i32 } %37, 1
  store i32 %39, ptr %8, align 4
  %40 = load i1, ptr %6, align 1
  br i1 %40, label %41, label %43

41:                                               ; preds = %36
  %42 = load ptr, ptr %5, align 8
  call void @_ZN6icu_777UMemorydlEPv(ptr noundef %42) #12
  br label %43

43:                                               ; preds = %41, %36
  call void @_ZN6icu_777UObjectD2Ev(ptr noundef nonnull align 8 dereferenceable(8) %9) #12
  br label %45

44:                                               ; preds = %30, %2
  ret void

45:                                               ; preds = %43
  %46 = load ptr, ptr %7, align 8
  %47 = load i32, ptr %8, align 4
  %48 = insertvalue { ptr, i32 } poison, ptr %46, 0
  %49 = insertvalue { ptr, i32 } %48, i32 %47, 1
  resume { ptr, i32 } %49
}