; Function Attrs: mustprogress uwtable
define void @_ZN6icu_7713ListFormatterC2ERKS0_(ptr noundef nonnull align 8 dereferenceable(24) initializes((0, 24)) %0, ptr noundef nonnull readonly align 8 captures(none) dereferenceable(24) %1) unnamed_addr #1 align 2 personality ptr @__gxx_personality_v0 {
  store ptr getelementptr inbounds nuw inrange(-16, 24) (i8, ptr @_ZTVN6icu_7713ListFormatterE, i64 16), ptr %0, align 8, !tbaa !15
  %3 = getelementptr inbounds nuw i8, ptr %0, i64 8
  %4 = getelementptr inbounds nuw i8, ptr %1, i64 8
  %5 = load ptr, ptr %4, align 8, !tbaa !35
  store ptr %5, ptr %3, align 8, !tbaa !35
  %6 = getelementptr inbounds nuw i8, ptr %0, i64 16
  %7 = getelementptr inbounds nuw i8, ptr %1, i64 16
  %8 = load ptr, ptr %7, align 8, !tbaa !39
  store ptr %8, ptr %6, align 8, !tbaa !39
  %.not = icmp eq ptr %5, null
  br i1 %.not, label %34, label %9

9:                                                ; preds = %2
  %10 = tail call noundef ptr @_ZN6icu_777UMemorynwEm(i64 noundef 160) #19
  %11 = icmp eq ptr %10, null
  br i1 %11, label %31, label %12

12:                                               ; preds = %9
  %13 = load ptr, ptr %4, align 8, !tbaa !35
  %14 = getelementptr inbounds nuw i8, ptr %10, i64 16
  %15 = getelementptr inbounds nuw i8, ptr %13, i64 16
  invoke void @_ZN6icu_7713UnicodeStringC1ERKS0_(ptr noundef nonnull align 8 dereferenceable(64) %14, ptr noundef nonnull align 8 dereferenceable(64) %15)
          to label %.noexc unwind label %32

.noexc:                                           ; preds = %12
  %16 = getelementptr inbounds nuw i8, ptr %10, i64 80
  %17 = getelementptr inbounds nuw i8, ptr %10, i64 88
  %18 = getelementptr inbounds nuw i8, ptr %13, i64 88
  invoke void @_ZN6icu_7713UnicodeStringC1ERKS0_(ptr noundef nonnull align 8 dereferenceable(64) %17, ptr noundef nonnull align 8 dereferenceable(64) %18)
          to label %_ZN6icu_7715SimpleFormatterC2ERKS0_.exit.i unwind label %24

_ZN6icu_7715SimpleFormatterC2ERKS0_.exit.i:       ; preds = %.noexc
  %19 = getelementptr inbounds nuw i8, ptr %13, i64 152
  %.val.i = load ptr, ptr %19, align 8, !tbaa !40
  %20 = load ptr, ptr %.val.i, align 8, !tbaa !15
  %21 = getelementptr inbounds nuw i8, ptr %20, i64 24
  %22 = load ptr, ptr %21, align 8
  %23 = invoke noundef ptr %22(ptr noundef nonnull align 8 dereferenceable(152) %.val.i)
          to label %_ZN6icu_7718ListFormatInternalC2ERKS0_.exit unwind label %26

24:                                               ; preds = %.noexc
  %25 = landingpad { ptr, i32 }
          cleanup
  br label %28

26:                                               ; preds = %_ZN6icu_7715SimpleFormatterC2ERKS0_.exit.i
  %27 = landingpad { ptr, i32 }
          cleanup
  tail call void @_ZN6icu_7715SimpleFormatterD1Ev(ptr noundef nonnull align 8 dereferenceable(72) %16) #19
  br label %28

28:                                               ; preds = %26, %24
  %.pn.i = phi { ptr, i32 } [ %27, %26 ], [ %25, %24 ]
  %29 = getelementptr inbounds nuw i8, ptr %10, i64 8
  tail call void @_ZN6icu_7715SimpleFormatterD1Ev(ptr noundef nonnull align 8 dereferenceable(72) %29) #19
  br label %.body

_ZN6icu_7718ListFormatInternalC2ERKS0_.exit:      ; preds = %_ZN6icu_7715SimpleFormatterC2ERKS0_.exit.i
  %30 = getelementptr inbounds nuw i8, ptr %10, i64 152
  store ptr %23, ptr %30, align 8, !tbaa !40
  br label %31

31:                                               ; preds = %_ZN6icu_7718ListFormatInternalC2ERKS0_.exit, %9
  store ptr %10, ptr %3, align 8, !tbaa !35
  store ptr %10, ptr %6, align 8, !tbaa !39
  br label %34

32:                                               ; preds = %12
  %33 = landingpad { ptr, i32 }
          cleanup
  br label %.body

.body:                                            ; preds = %28, %32
  %eh.lpad-body = phi { ptr, i32 } [ %33, %32 ], [ %.pn.i, %28 ]
  tail call void @_ZN6icu_777UMemorydlEPv(ptr noundef nonnull %10) #19
  tail call void @_ZN6icu_777UObjectD2Ev(ptr noundef nonnull align 8 dereferenceable(8) %0) #19
  resume { ptr, i32 } %eh.lpad-body

34:                                               ; preds = %31, %2
  ret void
}